; ModuleID = '30/3294.cpp'
source_filename = "30/3294.cpp"
target datalayout = "e-m:e-p270:32:32-p271:32:32-p272:64:64-i64:64-f80:128-n8:16:32:64-S128"
target triple = "x86_64-pc-linux-gnu"

%"class.std::ios_base::Init" = type { i8 }
%"class.std::basic_istream" = type { i32 (...)**, i64, %"class.std::basic_ios" }
%"class.std::basic_ios" = type { %"class.std::ios_base", %"class.std::basic_ostream"*, i8, i8, %"class.std::basic_streambuf"*, %"class.std::ctype"*, %"class.std::num_put"*, %"class.std::num_get"* }
%"class.std::ios_base" = type { i32 (...)**, i64, i64, i32, i32, i32, %"struct.std::ios_base::_Callback_list"*, %"struct.std::ios_base::_Words", [8 x %"struct.std::ios_base::_Words"], i32, %"struct.std::ios_base::_Words"*, %"class.std::locale" }
%"struct.std::ios_base::_Callback_list" = type { %"struct.std::ios_base::_Callback_list"*, void (i32, %"class.std::ios_base"*, i32)*, i32, i32 }
%"struct.std::ios_base::_Words" = type { i8*, i64 }
%"class.std::locale" = type { %"class.std::locale::_Impl"* }
%"class.std::locale::_Impl" = type { i32, %"class.std::locale::facet"**, i64, %"class.std::locale::facet"**, i8** }
%"class.std::locale::facet" = type <{ i32 (...)**, i32, [4 x i8] }>
%"class.std::basic_ostream" = type { i32 (...)**, %"class.std::basic_ios" }
%"class.std::basic_streambuf" = type { i32 (...)**, i8*, i8*, i8*, i8*, i8*, i8*, %"class.std::locale" }
%"class.std::ctype" = type <{ %"class.std::locale::facet.base", [4 x i8], %struct.__locale_struct*, i8, [7 x i8], i32*, i32*, i16*, i8, [256 x i8], [256 x i8], i8, [6 x i8] }>
%"class.std::locale::facet.base" = type <{ i32 (...)**, i32 }>
%struct.__locale_struct = type { [13 x %struct.__locale_data*], i16*, i32*, i32*, [13 x i8*] }
%struct.__locale_data = type opaque
%"class.std::num_put" = type { %"class.std::locale::facet.base", [4 x i8] }
%"class.std::num_get" = type { %"class.std::locale::facet.base", [4 x i8] }

@_ZStL8__ioinit = internal global %"class.std::ios_base::Init" zeroinitializer, align 1
@__dso_handle = external hidden global i8
@_ZSt3cin = external dso_local global %"class.std::basic_istream", align 8
@_ZSt4cout = external dso_local global %"class.std::basic_ostream", align 8
@llvm.global_ctors = appending global [1 x { i32, void ()*, i8* }] [{ i32, void ()*, i8* } { i32 65535, void ()* @_GLOBAL__sub_I_3294.cpp, i8* null }]

; Function Attrs: noinline uwtable
define internal void @__cxx_global_var_init() #0 section ".text.startup" {
  call void @_ZNSt8ios_base4InitC1Ev(%"class.std::ios_base::Init"* @_ZStL8__ioinit)
  %1 = call i32 @__cxa_atexit(void (i8*)* bitcast (void (%"class.std::ios_base::Init"*)* @_ZNSt8ios_base4InitD1Ev to void (i8*)*), i8* getelementptr inbounds (%"class.std::ios_base::Init", %"class.std::ios_base::Init"* @_ZStL8__ioinit, i32 0, i32 0), i8* @__dso_handle) #3
  ret void
}

declare dso_local void @_ZNSt8ios_base4InitC1Ev(%"class.std::ios_base::Init"*) unnamed_addr #1

; Function Attrs: nounwind
declare dso_local void @_ZNSt8ios_base4InitD1Ev(%"class.std::ios_base::Init"*) unnamed_addr #2

; Function Attrs: nounwind
declare dso_local i32 @__cxa_atexit(void (i8*)*, i8*, i8*) #3

; Function Attrs: noinline norecurse uwtable
define dso_local i32 @main() #4 {
  %1 = alloca i32, align 4
  %2 = alloca i32, align 4
  %3 = alloca i32, align 4
  %4 = alloca double, align 8
  %5 = alloca double, align 8
  %6 = alloca double, align 8
  store i32 0, i32* %1, align 4
  store i32 0, i32* %3, align 4
  %7 = call dereferenceable(280) %"class.std::basic_istream"* @_ZNSirsERi(%"class.std::basic_istream"* @_ZSt3cin, i32* dereferenceable(4) %2)
  store double 0.000000e+00, double* %6, align 8
  br label %8

8:                                                ; preds = %55, %0
  %9 = load double, double* %6, align 8
  %10 = load i32, i32* %2, align 4
  %11 = sitofp i32 %10 to double
  %12 = fcmp ole double %9, %11
  br i1 %12, label %13, label %58

13:                                               ; preds = %8
  %14 = load double, double* %6, align 8
  %15 = fdiv double %14, 1.000000e+02
  %16 = call double @llvm.floor.f64(double %15)
  store double %16, double* %4, align 8
  %17 = load double, double* %6, align 8
  %18 = load double, double* %4, align 8
  %19 = fmul double %18, 1.000000e+02
  %20 = fsub double %17, %19
  %21 = fdiv double %20, 1.000000e+01
  %22 = call double @llvm.floor.f64(double %21)
  store double %22, double* %5, align 8
  %23 = load double, double* %6, align 8
  %24 = fdiv double %23, 7.000000e+00
  %25 = load double, double* %6, align 8
  %26 = fdiv double %25, 7.000000e+00
  %27 = call double @llvm.floor.f64(double %26)
  %28 = fcmp oeq double %24, %27
  br i1 %28, label %29, label %30

29:                                               ; preds = %13
  br label %55

30:                                               ; preds = %13
  %31 = load double, double* %4, align 8
  %32 = fcmp oeq double %31, 7.000000e+00
  br i1 %32, label %45, label %33

33:                                               ; preds = %30
  %34 = load double, double* %5, align 8
  %35 = fcmp oeq double %34, 7.000000e+00
  br i1 %35, label %45, label %36

36:                                               ; preds = %33
  %37 = load double, double* %6, align 8
  %38 = load double, double* %4, align 8
  %39 = fmul double %38, 1.000000e+02
  %40 = fsub double %37, %39
  %41 = load double, double* %5, align 8
  %42 = fmul double %41, 1.000000e+01
  %43 = fsub double %40, %42
  %44 = fcmp oeq double %43, 7.000000e+00
  br i1 %44, label %45, label %46

45:                                               ; preds = %36, %33, %30
  br label %55

46:                                               ; preds = %36
  br label %47

47:                                               ; preds = %46
  %48 = load double, double* %6, align 8
  %49 = load double, double* %6, align 8
  %50 = fmul double %48, %49
  %51 = load i32, i32* %3, align 4
  %52 = sitofp i32 %51 to double
  %53 = fadd double %52, %50
  %54 = fptosi double %53 to i32
  store i32 %54, i32* %3, align 4
  br label %55

55:                                               ; preds = %47, %45, %29
  %56 = load double, double* %6, align 8
  %57 = fadd double %56, 1.000000e+00
  store double %57, double* %6, align 8
  br label %8

58:                                               ; preds = %8
  %59 = load i32, i32* %3, align 4
  %60 = call dereferenceable(272) %"class.std::basic_ostream"* @_ZNSolsEi(%"class.std::basic_ostream"* @_ZSt4cout, i32 %59)
  %61 = call dereferenceable(272) %"class.std::basic_ostream"* @_ZNSolsEPFRSoS_E(%"class.std::basic_ostream"* %60, %"class.std::basic_ostream"* (%"class.std::basic_ostream"*)* @_ZSt4endlIcSt11char_traitsIcEERSt13basic_ostreamIT_T0_ES6_)
  ret i32 0
}

declare dso_local dereferenceable(280) %"class.std::basic_istream"* @_ZNSirsERi(%"class.std::basic_istream"*, i32* dereferenceable(4)) #1

; Function Attrs: nounwind readnone speculatable willreturn
declare double @llvm.floor.f64(double) #5

declare dso_local dereferenceable(272) %"class.std::basic_ostream"* @_ZNSolsEi(%"class.std::basic_ostream"*, i32) #1

declare dso_local dereferenceable(272) %"class.std::basic_ostream"* @_ZNSolsEPFRSoS_E(%"class.std::basic_ostream"*, %"class.std::basic_ostream"* (%"class.std::basic_ostream"*)*) #1

declare dso_local dereferenceable(272) %"class.std::basic_ostream"* @_ZSt4endlIcSt11char_traitsIcEERSt13basic_ostreamIT_T0_ES6_(%"class.std::basic_ostream"* dereferenceable(272)) #1

; Function Attrs: noinline uwtable
define internal void @_GLOBAL__sub_I_3294.cpp() #0 section ".text.startup" {
  call void @__cxx_global_var_init()
  ret void
}


!llvm.module.flags = !{!0}
!llvm.ident = !{!1}

!0 = !{i32 1, !"wchar_size", i32 4}
!1 = !{!"clang version 10.0.0-4ubuntu1 "}
